; Function Attrs: mustprogress nofree norecurse nosync nounwind willreturn memory(argmem: read) uwtable
define hidden noundef zeroext i1 @_ZN2os19signal_sent_by_killEPKv(ptr nocapture noundef readonly %0) local_unnamed_addr #6 align 2 {
switch.edge:
  %1 = getelementptr inbounds i8, ptr %0, i64 8
  %2 = load i32, ptr %1, align 8
  %switch.tableidx = add i32 %2, 6
  %3 = icmp ult i32 %switch.tableidx, 7
  %switch.cast = trunc i32 %switch.tableidx to i7
  %switch.downshift = lshr i7 -31, %switch.cast
  %switch.masked = trunc i7 %switch.downshift to i1
  %4 = select i1 %3, i1 %switch.masked, i1 false
  ret i1 %4
}